target datalayout = "e-m:e-p270:32:32-p271:32:32-p272:64:64-i64:64-i128:128-f80:128-n8:16:32:64-S128"
target triple = "x86_64-unknown-linux-gnu"

%struct.QTailQLink = type { ptr, ptr }
%struct.CompareState = type { %struct.Object, ptr, ptr, ptr, ptr, %struct.CharBackend, %struct.CharBackend, %struct.CharBackend, %struct.CharBackend, %struct.SocketReadState, %struct.SocketReadState, %struct.SocketReadState, %struct.SendCo, %struct.SendCo, i8, i64, i32, %struct._GQueue, ptr, ptr, ptr, ptr, ptr, i32, %union.anon.0 }
%struct.Object = type { ptr, ptr, ptr, i32, ptr }
%struct.CharBackend = type { ptr, ptr, ptr, ptr, ptr, ptr, i32, i32 }
%struct.SocketReadState = type { i32, i8, i32, i32, i32, [69632 x i8], ptr }
%struct.SendCo = type { ptr, ptr, ptr, %struct._GQueue, i8, i8, i32 }
%struct._GQueue = type { ptr, ptr, i32 }
%union.anon.0 = type { %struct.QTailQLink }
%struct.Packet = type { ptr, %union.anon.2, ptr, i32, i64, i32, i32, i32, i32, i8, i16, i16, i8 }
%union.anon.2 = type { ptr }
%struct.SendEntry = type { i32, i32, ptr }
%struct.timeval = type { i64, i64 }

@trace_events_enabled_count = external global i32, align 4
@message_with_timestamp = external global i8, align 1
@qemu_loglevel = external global i32, align 4
@_TRACE_COLO_COMPARE_MAIN_DSTATE = external global i16, align 2
@.str.29 = private unnamed_addr constant [37 x i8] c"%d@%zu.%06zu:colo_compare_main : %s\0A\00", align 1
@.str.30 = private unnamed_addr constant [24 x i8] c"colo_compare_main : %s\0A\00", align 1
@.str.35 = private unnamed_addr constant [32 x i8] c"colo send primary packet failed\00", align 1
@.str.36 = private unnamed_addr constant [31 x i8] c"packet same and release packet\00", align 1

; Function Attrs: nounwind sspstrong uwtable
define internal zeroext i1 @qemu_loglevel_mask(i32 noundef %mask) #0 {
entry:
  %mask.addr = alloca i32, align 4
  store i32 %mask, ptr %mask.addr, align 4
  %0 = load i32, ptr @qemu_loglevel, align 4
  %1 = load i32, ptr %mask.addr, align 4
  %and = and i32 %0, %1
  %cmp = icmp ne i32 %and, 0
  ret i1 %cmp
}

; Function Attrs: nounwind sspstrong uwtable
define internal void @_nocheck__trace_colo_compare_main(ptr noundef %chr) #0 {
entry:
  %chr.addr = alloca ptr, align 8
  %_now = alloca %struct.timeval, align 8
  store ptr %chr, ptr %chr.addr, align 8
  %0 = load i32, ptr @trace_events_enabled_count, align 4
  %tobool = icmp ne i32 %0, 0
  %lnot = xor i1 %tobool, true
  %lnot1 = xor i1 %lnot, true
  %lnot.ext = zext i1 %lnot1 to i32
  %conv = sext i32 %lnot.ext to i64
  %tobool2 = icmp ne i64 %conv, 0
  br i1 %tobool2, label %land.lhs.true, label %if.end11

land.lhs.true:                                    ; preds = %entry
  %1 = load i16, ptr @_TRACE_COLO_COMPARE_MAIN_DSTATE, align 2
  %conv3 = zext i16 %1 to i32
  %tobool4 = icmp ne i32 %conv3, 0
  br i1 %tobool4, label %land.lhs.true5, label %if.end11

land.lhs.true5:                                   ; preds = %land.lhs.true
  %call = call zeroext i1 @qemu_loglevel_mask(i32 noundef 32768)
  br i1 %call, label %if.then, label %if.end11

if.then:                                          ; preds = %land.lhs.true5
  %2 = load i8, ptr @message_with_timestamp, align 1
  %tobool7 = trunc i8 %2 to i1
  br i1 %tobool7, label %if.then8, label %if.else

if.then8:                                         ; preds = %if.then
  %call9 = call i32 @gettimeofday(ptr noundef %_now, ptr noundef null) #15
  %call10 = call i32 @qemu_get_thread_id()
  %tv_sec = getelementptr inbounds %struct.timeval, ptr %_now, i32 0, i32 0
  %3 = load i64, ptr %tv_sec, align 8
  %tv_usec = getelementptr inbounds %struct.timeval, ptr %_now, i32 0, i32 1
  %4 = load i64, ptr %tv_usec, align 8
  %5 = load ptr, ptr %chr.addr, align 8
  call void (ptr, ...) @qemu_log(ptr noundef @.str.29, i32 noundef %call10, i64 noundef %3, i64 noundef %4, ptr noundef %5)
  br label %if.end

if.else:                                          ; preds = %if.then
  %6 = load ptr, ptr %chr.addr, align 8
  call void (ptr, ...) @qemu_log(ptr noundef @.str.30, ptr noundef %6)
  br label %if.end

if.end:                                           ; preds = %if.else, %if.then8
  br label %if.end11

if.end11:                                         ; preds = %if.end, %land.lhs.true5, %land.lhs.true, %entry
  ret void
}

; Function Attrs: nounwind sspstrong uwtable
define internal void @trace_colo_compare_main(ptr noundef %chr) #0 {
entry:
  %chr.addr = alloca ptr, align 8
  store ptr %chr, ptr %chr.addr, align 8
  %0 = load ptr, ptr %chr.addr, align 8
  call void @_nocheck__trace_colo_compare_main(ptr noundef %0)
  ret void
}

; Function Attrs: nounwind sspstrong uwtable
define internal i32 @compare_chr_send(ptr noundef %s, ptr noundef %buf, i32 noundef %size, i32 noundef %vnet_hdr_len, i1 noundef zeroext %notify_remote_frame, i1 noundef zeroext %zero_copy) #0 {
entry:
  %retval = alloca i32, align 4
  %s.addr = alloca ptr, align 8
  %buf.addr = alloca ptr, align 8
  %size.addr = alloca i32, align 4
  %vnet_hdr_len.addr = alloca i32, align 4
  %notify_remote_frame.addr = alloca i8, align 1
  %zero_copy.addr = alloca i8, align 1
  %sendco = alloca ptr, align 8
  %entry2 = alloca ptr, align 8
  store ptr %s, ptr %s.addr, align 8
  store ptr %buf, ptr %buf.addr, align 8
  store i32 %size, ptr %size.addr, align 4
  store i32 %vnet_hdr_len, ptr %vnet_hdr_len.addr, align 4
  %frombool = zext i1 %notify_remote_frame to i8
  store i8 %frombool, ptr %notify_remote_frame.addr, align 1
  %frombool1 = zext i1 %zero_copy to i8
  store i8 %frombool1, ptr %zero_copy.addr, align 1
  %0 = load i8, ptr %notify_remote_frame.addr, align 1
  %tobool = trunc i8 %0 to i1
  br i1 %tobool, label %if.then, label %if.else

if.then:                                          ; preds = %entry
  %1 = load ptr, ptr %s.addr, align 8
  %notify_sendco = getelementptr inbounds %struct.CompareState, ptr %1, i32 0, i32 13
  store ptr %notify_sendco, ptr %sendco, align 8
  br label %if.end

if.else:                                          ; preds = %entry
  %2 = load ptr, ptr %s.addr, align 8
  %out_sendco = getelementptr inbounds %struct.CompareState, ptr %2, i32 0, i32 12
  store ptr %out_sendco, ptr %sendco, align 8
  br label %if.end

if.end:                                           ; preds = %if.else, %if.then
  %3 = load i32, ptr %size.addr, align 4
  %tobool3 = icmp ne i32 %3, 0
  br i1 %tobool3, label %if.end5, label %if.then4

if.then4:                                         ; preds = %if.end
  store i32 -1, ptr %retval, align 4
  br label %return

if.end5:                                          ; preds = %if.end
  %call = call noalias ptr @g_slice_alloc(i64 noundef 16) #12
  store ptr %call, ptr %entry2, align 8
  %4 = load i32, ptr %size.addr, align 4
  %5 = load ptr, ptr %entry2, align 8
  %size6 = getelementptr inbounds %struct.SendEntry, ptr %5, i32 0, i32 0
  store i32 %4, ptr %size6, align 8
  %6 = load i32, ptr %vnet_hdr_len.addr, align 4
  %7 = load ptr, ptr %entry2, align 8
  %vnet_hdr_len7 = getelementptr inbounds %struct.SendEntry, ptr %7, i32 0, i32 1
  store i32 %6, ptr %vnet_hdr_len7, align 4
  %8 = load i8, ptr %zero_copy.addr, align 1
  %tobool8 = trunc i8 %8 to i1
  br i1 %tobool8, label %if.then9, label %if.else11

if.then9:                                         ; preds = %if.end5
  %9 = load ptr, ptr %buf.addr, align 8
  %10 = load ptr, ptr %entry2, align 8
  %buf10 = getelementptr inbounds %struct.SendEntry, ptr %10, i32 0, i32 2
  store ptr %9, ptr %buf10, align 8
  br label %if.end16

if.else11:                                        ; preds = %if.end5
  %11 = load i32, ptr %size.addr, align 4
  %conv = zext i32 %11 to i64
  %call12 = call noalias ptr @g_malloc(i64 noundef %conv) #12
  %12 = load ptr, ptr %entry2, align 8
  %buf13 = getelementptr inbounds %struct.SendEntry, ptr %12, i32 0, i32 2
  store ptr %call12, ptr %buf13, align 8
  %13 = load ptr, ptr %entry2, align 8
  %buf14 = getelementptr inbounds %struct.SendEntry, ptr %13, i32 0, i32 2
  %14 = load ptr, ptr %buf14, align 8
  %15 = load ptr, ptr %buf.addr, align 8
  %16 = load i32, ptr %size.addr, align 4
  %conv15 = zext i32 %16 to i64
  call void @llvm.memcpy.p0.p0.i64(ptr align 1 %14, ptr align 1 %15, i64 %conv15, i1 false)
  br label %if.end16

if.end16:                                         ; preds = %if.else11, %if.then9
  %17 = load ptr, ptr %sendco, align 8
  %send_list = getelementptr inbounds %struct.SendCo, ptr %17, i32 0, i32 3
  %18 = load ptr, ptr %entry2, align 8
  call void @g_queue_push_tail(ptr noundef %send_list, ptr noundef %18)
  %19 = load ptr, ptr %sendco, align 8
  %done = getelementptr inbounds %struct.SendCo, ptr %19, i32 0, i32 5
  %20 = load i8, ptr %done, align 1
  %tobool17 = trunc i8 %20 to i1
  br i1 %tobool17, label %if.then18, label %if.end26

if.then18:                                        ; preds = %if.end16
  %21 = load ptr, ptr %sendco, align 8
  %call19 = call ptr @qemu_coroutine_create(ptr noundef @_compare_chr_send, ptr noundef %21)
  %22 = load ptr, ptr %sendco, align 8
  %co = getelementptr inbounds %struct.SendCo, ptr %22, i32 0, i32 0
  store ptr %call19, ptr %co, align 8
  %23 = load ptr, ptr %sendco, align 8
  %done20 = getelementptr inbounds %struct.SendCo, ptr %23, i32 0, i32 5
  store i8 0, ptr %done20, align 1
  %24 = load ptr, ptr %sendco, align 8
  %co21 = getelementptr inbounds %struct.SendCo, ptr %24, i32 0, i32 0
  %25 = load ptr, ptr %co21, align 8
  call void @qemu_coroutine_enter(ptr noundef %25)
  %26 = load ptr, ptr %sendco, align 8
  %done22 = getelementptr inbounds %struct.SendCo, ptr %26, i32 0, i32 5
  %27 = load i8, ptr %done22, align 1
  %tobool23 = trunc i8 %27 to i1
  br i1 %tobool23, label %if.then24, label %if.end25

if.then24:                                        ; preds = %if.then18
  %28 = load ptr, ptr %sendco, align 8
  %ret = getelementptr inbounds %struct.SendCo, ptr %28, i32 0, i32 6
  %29 = load i32, ptr %ret, align 4
  store i32 %29, ptr %retval, align 4
  br label %return

if.end25:                                         ; preds = %if.then18
  br label %if.end26

if.end26:                                         ; preds = %if.end25, %if.end16
  store i32 0, ptr %retval, align 4
  br label %return

return:                                           ; preds = %if.end26, %if.then24, %if.then4
  %30 = load i32, ptr %retval, align 4
  ret i32 %30
}

; Function Attrs: nounwind sspstrong uwtable
define internal void @colo_release_primary_pkt(ptr noundef %s, ptr noundef %pkt) #0 {
entry:
  %s.addr = alloca ptr, align 8
  %pkt.addr = alloca ptr, align 8
  %ret = alloca i32, align 4
  store ptr %s, ptr %s.addr, align 8
  store ptr %pkt, ptr %pkt.addr, align 8
  %0 = load ptr, ptr %s.addr, align 8
  %1 = load ptr, ptr %pkt.addr, align 8
  %data = getelementptr inbounds %struct.Packet, ptr %1, i32 0, i32 0
  %2 = load ptr, ptr %data, align 8
  %3 = load ptr, ptr %pkt.addr, align 8
  %size = getelementptr inbounds %struct.Packet, ptr %3, i32 0, i32 3
  %4 = load i32, ptr %size, align 8
  %5 = load ptr, ptr %pkt.addr, align 8
  %vnet_hdr_len = getelementptr inbounds %struct.Packet, ptr %5, i32 0, i32 5
  %6 = load i32, ptr %vnet_hdr_len, align 8
  %call = call i32 @compare_chr_send(ptr noundef %0, ptr noundef %2, i32 noundef %4, i32 noundef %6, i1 noundef zeroext false, i1 noundef zeroext true)
  store i32 %call, ptr %ret, align 4
  %7 = load i32, ptr %ret, align 4
  %cmp = icmp slt i32 %7, 0
  br i1 %cmp, label %if.then, label %if.end

if.then:                                          ; preds = %entry
  call void (ptr, ...) @error_report(ptr noundef @.str.35)
  br label %if.end

if.end:                                           ; preds = %if.then, %entry
  call void @trace_colo_compare_main(ptr noundef @.str.36)
  %8 = load ptr, ptr %pkt.addr, align 8
  call void @packet_destroy_partial(ptr noundef %8, ptr noundef null)
  ret void
}