; Function Attrs: nounwind sspstrong uwtable
define internal fastcc void @colo_release_primary_pkt(ptr noundef %s, ptr noundef %pkt) unnamed_addr #0 {
entry:
  %_now.i.i = alloca %struct.timeval, align 8
  %size = getelementptr inbounds nuw i8, ptr %pkt, i64 24
  %0 = load i32, ptr %size, align 8
  %sendco.0.i = getelementptr inbounds nuw i8, ptr %s, i64 209288
  %tobool3.not.i = icmp eq i32 %0, 0
  br i1 %tobool3.not.i, label %if.then, label %if.end5.i

if.end5.i:                                        ; preds = %entry
  %vnet_hdr_len = getelementptr inbounds nuw i8, ptr %pkt, i64 40
  %1 = load i32, ptr %vnet_hdr_len, align 8
  %2 = load ptr, ptr %pkt, align 8
  %call.i = tail call noalias dereferenceable_or_null(16) ptr @g_slice_alloc(i64 noundef 16) #18
  store i32 %0, ptr %call.i, align 8
  %vnet_hdr_len7.i = getelementptr inbounds nuw i8, ptr %call.i, i64 4
  store i32 %1, ptr %vnet_hdr_len7.i, align 4
  %3 = getelementptr inbounds nuw i8, ptr %call.i, i64 8
  store ptr %2, ptr %3, align 8
  %send_list.i = getelementptr inbounds nuw i8, ptr %s, i64 209312
  tail call void @g_queue_push_tail(ptr noundef nonnull %send_list.i, ptr noundef nonnull %call.i) #16
  %done.i = getelementptr inbounds nuw i8, ptr %s, i64 209337
  %4 = load i8, ptr %done.i, align 1
  %tobool17.i = trunc i8 %4 to i1
  br i1 %tobool17.i, label %if.then18.i, label %if.end

if.then18.i:                                      ; preds = %if.end5.i
  %call19.i = tail call ptr @qemu_coroutine_create(ptr noundef nonnull @_compare_chr_send, ptr noundef nonnull %sendco.0.i) #16
  store ptr %call19.i, ptr %sendco.0.i, align 8
  store i8 0, ptr %done.i, align 1
  tail call void @qemu_coroutine_enter(ptr noundef %call19.i) #16
  %5 = load i8, ptr %done.i, align 1
  %tobool23.i = trunc i8 %5 to i1
  br i1 %tobool23.i, label %compare_chr_send.exit, label %if.end

compare_chr_send.exit:                            ; preds = %if.then18.i
  %ret.i = getelementptr inbounds nuw i8, ptr %s, i64 209340
  %6 = load i32, ptr %ret.i, align 4
  %cmp = icmp slt i32 %6, 0
  br i1 %cmp, label %if.then, label %if.end

if.then:                                          ; preds = %entry, %compare_chr_send.exit
  tail call void (ptr, ...) @error_report(ptr noundef nonnull @.str.35) #16
  br label %if.end

if.end:                                           ; preds = %if.end5.i, %if.then18.i, %if.then, %compare_chr_send.exit
  call void @llvm.lifetime.start.p0(i64 16, ptr nonnull %_now.i.i)
  %7 = load i32, ptr @trace_events_enabled_count, align 4
  %tobool.i.i = icmp ne i32 %7, 0
  %8 = load i16, ptr @_TRACE_COLO_COMPARE_MAIN_DSTATE, align 2
  %tobool4.i.i = icmp ne i16 %8, 0
  %or.cond.i.i = select i1 %tobool.i.i, i1 %tobool4.i.i, i1 false
  br i1 %or.cond.i.i, label %land.lhs.true5.i.i, label %trace_colo_compare_main.exit

land.lhs.true5.i.i:                               ; preds = %if.end
  %9 = load i32, ptr @qemu_loglevel, align 4
  %and.i.i.i = and i32 %9, 32768
  %cmp.i.not.i.i = icmp eq i32 %and.i.i.i, 0
  br i1 %cmp.i.not.i.i, label %trace_colo_compare_main.exit, label %if.then.i.i

if.then.i.i:                                      ; preds = %land.lhs.true5.i.i
  %10 = load i8, ptr @message_with_timestamp, align 1
  %tobool7.i.i = trunc i8 %10 to i1
  br i1 %tobool7.i.i, label %if.then8.i.i, label %if.else.i.i

if.then8.i.i:                                     ; preds = %if.then.i.i
  %call9.i.i = call i32 @gettimeofday(ptr noundef nonnull %_now.i.i, ptr noundef null) #16
  %call10.i.i = tail call i32 @qemu_get_thread_id() #16
  %11 = load i64, ptr %_now.i.i, align 8
  %tv_usec.i.i = getelementptr inbounds nuw i8, ptr %_now.i.i, i64 8
  %12 = load i64, ptr %tv_usec.i.i, align 8
  tail call void (ptr, ...) @qemu_log(ptr noundef nonnull @.str.29, i32 noundef %call10.i.i, i64 noundef %11, i64 noundef %12, ptr noundef nonnull @.str.36) #16
  br label %trace_colo_compare_main.exit

if.else.i.i:                                      ; preds = %if.then.i.i
  tail call void (ptr, ...) @qemu_log(ptr noundef nonnull @.str.30, ptr noundef nonnull @.str.36) #16
  br label %trace_colo_compare_main.exit

trace_colo_compare_main.exit:                     ; preds = %if.end, %land.lhs.true5.i.i, %if.then8.i.i, %if.else.i.i
  call void @llvm.lifetime.end.p0(i64 16, ptr nonnull %_now.i.i)
  tail call void @packet_destroy_partial(ptr noundef nonnull %pkt, ptr noundef null) #16
  ret void
}